; Function Attrs: null_pointer_is_valid sspstrong uwtable
define internal fastcc void @dissect_dcerpc_dg_cancel_ack(ptr noundef %0, ptr noundef %1, ptr noundef readonly captures(none) %2) unnamed_addr #0 {
  %4 = getelementptr inbounds nuw i8, ptr %2, i64 4
  %5 = load i32, ptr @hf_dcerpc_dg_cancel_vers, align 4
  %6 = load i8, ptr %4, align 1
  %7 = and i8 %6, 16
  %.not.i = icmp eq i8 %7, 0
  br i1 %.not.i, label %10, label %8

8:                                                ; preds = %3
  %9 = tail call i32 @tvb_get_letohl(ptr noundef %0, i32 noundef 80)
  br label %12

10:                                               ; preds = %3
  %11 = tail call i32 @tvb_get_ntohl(ptr noundef %0, i32 noundef 80)
  br label %12

12:                                               ; preds = %10, %8
  %13 = phi i32 [ %9, %8 ], [ %11, %10 ]
  %.not17.i = icmp eq i32 %5, -1
  br i1 %.not17.i, label %dissect_dcerpc_uint32.exit, label %14

14:                                               ; preds = %12
  %15 = load i8, ptr %4, align 1
  %16 = and i8 %15, 16
  %17 = zext nneg i8 %16 to i32
  %18 = shl nuw i32 %17, 27
  %19 = tail call ptr @proto_tree_add_item(ptr noundef %1, i32 noundef %5, ptr noundef %0, i32 noundef 80, i32 noundef 4, i32 noundef %18)
  br label %dissect_dcerpc_uint32.exit

dissect_dcerpc_uint32.exit:                       ; preds = %12, %14
  tail call void @tvb_ensure_bytes_exist(ptr noundef %0, i32 noundef 80, i32 noundef 4)
  %cond = icmp eq i32 %13, 0
  br i1 %cond, label %20, label %43

20:                                               ; preds = %dissect_dcerpc_uint32.exit
  %21 = load i32, ptr @hf_dcerpc_dg_cancel_id, align 4
  %22 = load i8, ptr %4, align 1
  %23 = and i8 %22, 16
  %.not.i14 = icmp eq i8 %23, 0
  br i1 %.not.i14, label %26, label %24

24:                                               ; preds = %20
  %25 = tail call i32 @tvb_get_letohl(ptr noundef %0, i32 noundef 84)
  br label %28

26:                                               ; preds = %20
  %27 = tail call i32 @tvb_get_ntohl(ptr noundef %0, i32 noundef 84)
  br label %28

28:                                               ; preds = %26, %24
  %.not17.i15 = icmp eq i32 %21, -1
  br i1 %.not17.i15, label %dissect_dcerpc_uint32.exit16, label %29

29:                                               ; preds = %28
  %30 = load i8, ptr %4, align 1
  %31 = and i8 %30, 16
  %32 = zext nneg i8 %31 to i32
  %33 = shl nuw i32 %32, 27
  %34 = tail call ptr @proto_tree_add_item(ptr noundef %1, i32 noundef %21, ptr noundef %0, i32 noundef 84, i32 noundef 4, i32 noundef %33)
  br label %dissect_dcerpc_uint32.exit16

dissect_dcerpc_uint32.exit16:                     ; preds = %28, %29
  tail call void @tvb_ensure_bytes_exist(ptr noundef %0, i32 noundef 84, i32 noundef 4)
  %35 = load i32, ptr @hf_dcerpc_dg_server_accepting_cancels, align 4
  %36 = tail call zeroext i8 @tvb_get_uint8(ptr noundef %0, i32 noundef 88)
  %.not.i17 = icmp eq i32 %35, -1
  br i1 %.not.i17, label %dissect_dcerpc_uint8.exit, label %37

37:                                               ; preds = %dissect_dcerpc_uint32.exit16
  %38 = load i8, ptr %4, align 1
  %39 = and i8 %38, 16
  %40 = zext nneg i8 %39 to i32
  %41 = shl nuw i32 %40, 27
  %42 = tail call ptr @proto_tree_add_item(ptr noundef %1, i32 noundef %35, ptr noundef %0, i32 noundef 88, i32 noundef 1, i32 noundef %41)
  br label %dissect_dcerpc_uint8.exit

dissect_dcerpc_uint8.exit:                        ; preds = %dissect_dcerpc_uint32.exit16, %37
  tail call void @tvb_ensure_bytes_exist(ptr noundef %0, i32 noundef 88, i32 noundef 1)
  br label %43

43:                                               ; preds = %dissect_dcerpc_uint32.exit, %dissect_dcerpc_uint8.exit
  ret void
}